target datalayout = "e-m:e-p270:32:32-p271:32:32-p272:64:64-i64:64-i128:128-f80:128-n8:16:32:64-S128"
target triple = "x86_64-pc-linux-gnu"

%"class.draco::GeometryAttribute" = type { ptr, %"struct.draco::DataBufferDescriptor", i8, i32, i8, i64, i64, i32, i32 }
%"struct.draco::DataBufferDescriptor" = type { i64, i64 }
%"class.draco::DataBuffer" = type { %"class.std::vector", %"struct.draco::DataBufferDescriptor" }
%"class.std::vector" = type { %"struct.std::_Vector_base" }
%"struct.std::_Vector_base" = type { %"struct.std::_Vector_base<unsigned char, std::allocator<unsigned char>>::_Vector_impl" }
%"struct.std::_Vector_base<unsigned char, std::allocator<unsigned char>>::_Vector_impl" = type { %"struct.std::_Vector_base<unsigned char, std::allocator<unsigned char>>::_Vector_impl_data" }
%"struct.std::_Vector_base<unsigned char, std::allocator<unsigned char>>::_Vector_impl_data" = type { ptr, ptr, ptr }

; Function Attrs: mustprogress nounwind uwtable
define linkonce_odr noundef i64 @_ZNK5draco10DataBuffer12update_countEv(ptr noundef nonnull align 8 dereferenceable(40) %0) #1 comdat align 2 {
  %2 = alloca ptr, align 8
  store ptr %0, ptr %2, align 8, !tbaa !28
  %3 = load ptr, ptr %2, align 8
  %4 = getelementptr inbounds nuw %"class.draco::DataBuffer", ptr %3, i32 0, i32 1
  %5 = getelementptr inbounds nuw %"struct.draco::DataBufferDescriptor", ptr %4, i32 0, i32 1
  %6 = load i64, ptr %5, align 8, !tbaa !45
  ret i64 %6
}

; Function Attrs: mustprogress nounwind uwtable
define linkonce_odr noundef i64 @_ZNK5draco10DataBuffer9buffer_idEv(ptr noundef nonnull align 8 dereferenceable(40) %0) #1 comdat align 2 {
  %2 = alloca ptr, align 8
  store ptr %0, ptr %2, align 8, !tbaa !28
  %3 = load ptr, ptr %2, align 8
  %4 = getelementptr inbounds nuw %"class.draco::DataBuffer", ptr %3, i32 0, i32 1
  %5 = getelementptr inbounds nuw %"struct.draco::DataBufferDescriptor", ptr %4, i32 0, i32 0
  %6 = load i64, ptr %5, align 8, !tbaa !38
  ret i64 %6
}

; Function Attrs: mustprogress uwtable
define void @_ZN5draco17GeometryAttribute4InitENS0_4TypeEPNS_10DataBufferEhNS_8DataTypeEbll(ptr noundef nonnull align 8 dereferenceable(64) %0, i32 noundef %1, ptr noundef %2, i8 noundef zeroext %3, i32 noundef %4, i1 noundef zeroext %5, i64 noundef %6, i64 noundef %7) #0 align 2 {
  %9 = alloca ptr, align 8
  %10 = alloca i32, align 4
  %11 = alloca ptr, align 8
  %12 = alloca i8, align 1
  %13 = alloca i32, align 4
  %14 = alloca i8, align 1
  %15 = alloca i64, align 8
  %16 = alloca i64, align 8
  store ptr %0, ptr %9, align 8, !tbaa !3
  store i32 %1, ptr %10, align 4, !tbaa !27
  store ptr %2, ptr %11, align 8, !tbaa !28
  store i8 %3, ptr %12, align 1, !tbaa !29
  store i32 %4, ptr %13, align 4, !tbaa !30
  %17 = zext i1 %5 to i8
  store i8 %17, ptr %14, align 1, !tbaa !31
  store i64 %6, ptr %15, align 8, !tbaa !32
  store i64 %7, ptr %16, align 8, !tbaa !32
  %18 = load ptr, ptr %9, align 8
  %19 = load ptr, ptr %11, align 8, !tbaa !28
  %20 = getelementptr inbounds nuw %"class.draco::GeometryAttribute", ptr %18, i32 0, i32 0
  store ptr %19, ptr %20, align 8, !tbaa !8
  %21 = load ptr, ptr %11, align 8, !tbaa !28
  %22 = icmp ne ptr %21, null
  br i1 %22, label %23, label %32

23:                                               ; preds = %8
  %24 = load ptr, ptr %11, align 8, !tbaa !28
  %25 = call noundef i64 @_ZNK5draco10DataBuffer9buffer_idEv(ptr noundef nonnull align 8 dereferenceable(40) %24)
  %26 = getelementptr inbounds nuw %"class.draco::GeometryAttribute", ptr %18, i32 0, i32 1
  %27 = getelementptr inbounds nuw %"struct.draco::DataBufferDescriptor", ptr %26, i32 0, i32 0
  store i64 %25, ptr %27, align 8, !tbaa !33
  %28 = load ptr, ptr %11, align 8, !tbaa !28
  %29 = call noundef i64 @_ZNK5draco10DataBuffer12update_countEv(ptr noundef nonnull align 8 dereferenceable(40) %28)
  %30 = getelementptr inbounds nuw %"class.draco::GeometryAttribute", ptr %18, i32 0, i32 1
  %31 = getelementptr inbounds nuw %"struct.draco::DataBufferDescriptor", ptr %30, i32 0, i32 1
  store i64 %29, ptr %31, align 8, !tbaa !34
  br label %32

32:                                               ; preds = %23, %8
  %33 = load i8, ptr %12, align 1, !tbaa !29
  %34 = getelementptr inbounds nuw %"class.draco::GeometryAttribute", ptr %18, i32 0, i32 2
  store i8 %33, ptr %34, align 8, !tbaa !17
  %35 = load i32, ptr %13, align 4, !tbaa !30
  %36 = getelementptr inbounds nuw %"class.draco::GeometryAttribute", ptr %18, i32 0, i32 3
  store i32 %35, ptr %36, align 4, !tbaa !18
  %37 = load i8, ptr %14, align 1, !tbaa !31, !range !35, !noundef !36
  %38 = trunc i8 %37 to i1
  %39 = getelementptr inbounds nuw %"class.draco::GeometryAttribute", ptr %18, i32 0, i32 4
  %40 = zext i1 %38 to i8
  store i8 %40, ptr %39, align 8, !tbaa !37
  %41 = load i64, ptr %15, align 8, !tbaa !32
  %42 = getelementptr inbounds nuw %"class.draco::GeometryAttribute", ptr %18, i32 0, i32 5
  store i64 %41, ptr %42, align 8, !tbaa !19
  %43 = load i64, ptr %16, align 8, !tbaa !32
  %44 = getelementptr inbounds nuw %"class.draco::GeometryAttribute", ptr %18, i32 0, i32 6
  store i64 %43, ptr %44, align 8, !tbaa !20
  %45 = load i32, ptr %10, align 4, !tbaa !27
  %46 = getelementptr inbounds nuw %"class.draco::GeometryAttribute", ptr %18, i32 0, i32 7
  store i32 %45, ptr %46, align 8, !tbaa !21
  ret void
}