; Function Attrs: mustprogress nofree norecurse nosync nounwind willreturn memory(argmem: readwrite) uwtable
define void @_ZN5draco17GeometryAttribute4InitENS0_4TypeEPNS_10DataBufferEhNS_8DataTypeEbll(ptr noundef nonnull writeonly align 8 captures(none) dereferenceable(64) initializes((0, 8), (24, 25), (28, 33), (40, 60)) %0, i32 noundef %1, ptr noundef %2, i8 noundef zeroext %3, i32 noundef %4, i1 noundef zeroext %5, i64 noundef %6, i64 noundef %7) local_unnamed_addr #1 align 2 {
  store ptr %2, ptr %0, align 8, !tbaa !18
  %.not = icmp eq ptr %2, null
  br i1 %.not, label %16, label %9

9:                                                ; preds = %8
  %10 = getelementptr inbounds nuw i8, ptr %2, i64 24
  %11 = load i64, ptr %10, align 8, !tbaa !19
  %12 = getelementptr inbounds nuw i8, ptr %0, i64 8
  store i64 %11, ptr %12, align 8, !tbaa !26
  %13 = getelementptr inbounds nuw i8, ptr %2, i64 32
  %14 = load i64, ptr %13, align 8, !tbaa !27
  %15 = getelementptr inbounds nuw i8, ptr %0, i64 16
  store i64 %14, ptr %15, align 8, !tbaa !28
  br label %16

16:                                               ; preds = %9, %8
  %17 = zext i1 %5 to i8
  %18 = getelementptr inbounds nuw i8, ptr %0, i64 24
  store i8 %3, ptr %18, align 8, !tbaa !3
  %19 = getelementptr inbounds nuw i8, ptr %0, i64 28
  store i32 %4, ptr %19, align 4, !tbaa !15
  %20 = getelementptr inbounds nuw i8, ptr %0, i64 32
  store i8 %17, ptr %20, align 8, !tbaa !29
  %21 = getelementptr inbounds nuw i8, ptr %0, i64 40
  store i64 %6, ptr %21, align 8, !tbaa !30
  %22 = getelementptr inbounds nuw i8, ptr %0, i64 48
  store i64 %7, ptr %22, align 8, !tbaa !31
  %23 = getelementptr inbounds nuw i8, ptr %0, i64 56
  store i32 %1, ptr %23, align 8, !tbaa !16
  ret void
}